target datalayout = "e-m:e-p270:32:32-p271:32:32-p272:64:64-i64:64-i128:128-f80:128-n8:16:32:64-S128"
target triple = "x86_64-pc-linux-gnu"

%struct._zend_accel_globals = type { i8, i8, i8, i8, i8, %struct._zend_accel_directives, ptr, ptr, [32 x i8], [32 x i8], i32, i8, i32, i8, i32, i64, i64, %struct._zend_array, i64, ptr, ptr, ptr, ptr, %struct._zend_string, [32768 x i8] }
%struct._zend_accel_directives = type { i64, i64, double, ptr, i64, i8, i8, i8, i8, i8, i8, i8, i8, i8, i8, i8, i64, i64, ptr, ptr, i64, i64, i64, i64, i64, ptr, ptr, ptr, i8, i8, i8, ptr, ptr }
%struct._zend_array = type { %struct._zend_refcounted_h, %union.anon.0, i32, %union.anon.1, i32, i32, i32, i32, i64, ptr }
%struct._zend_refcounted_h = type { i32, %union.anon }
%union.anon = type { i32 }
%union.anon.0 = type { i32 }
%union.anon.1 = type { ptr }
%struct._zend_string = type { %struct._zend_refcounted_h, i64, i64, [1 x i8] }
%struct._zend_smm_shared_globals = type { ptr, i32, i64, i64, i8, %struct._zend_shared_memory_state, ptr, ptr, i64 }
%struct._zend_shared_memory_state = type { ptr, i64 }
%struct._zend_shared_segment = type { i64, i64, i64, ptr }

@smm_shared_globals = hidden global ptr null, align 8
@accel_globals = external global %struct._zend_accel_globals, align 8
@.str.7 = private unnamed_addr constant [66 x i8] c"Possible integer overflow in shared memory allocation (%zu + %zu)\00", align 1
@.str.8 = private unnamed_addr constant [68 x i8] c"Not enough free shared space to allocate %zu bytes (%zu bytes free)\00", align 1

; Function Attrs: nounwind uwtable
define internal i64 @zend_shared_alloc_get_largest_free_block() #0 {
  %1 = alloca i32, align 4
  %2 = alloca i64, align 8
  %3 = alloca i64, align 8
  store i64 0, ptr %2, align 8
  store i32 0, ptr %1, align 4
  br label %4

4:                                                ; preds = %36, %0
  %5 = load i32, ptr %1, align 4
  %6 = load ptr, ptr @smm_shared_globals, align 8
  %7 = getelementptr inbounds %struct._zend_smm_shared_globals, ptr %6, i32 0, i32 1
  %8 = load i32, ptr %7, align 8
  %9 = icmp slt i32 %5, %8
  br i1 %9, label %10, label %39

10:                                               ; preds = %4
  %11 = load ptr, ptr @smm_shared_globals, align 8
  %12 = getelementptr inbounds %struct._zend_smm_shared_globals, ptr %11, i32 0, i32 0
  %13 = load ptr, ptr %12, align 8
  %14 = load i32, ptr %1, align 4
  %15 = sext i32 %14 to i64
  %16 = getelementptr inbounds ptr, ptr %13, i64 %15
  %17 = load ptr, ptr %16, align 8
  %18 = getelementptr inbounds %struct._zend_shared_segment, ptr %17, i32 0, i32 1
  %19 = load i64, ptr %18, align 8
  %20 = load ptr, ptr @smm_shared_globals, align 8
  %21 = getelementptr inbounds %struct._zend_smm_shared_globals, ptr %20, i32 0, i32 0
  %22 = load ptr, ptr %21, align 8
  %23 = load i32, ptr %1, align 4
  %24 = sext i32 %23 to i64
  %25 = getelementptr inbounds ptr, ptr %22, i64 %24
  %26 = load ptr, ptr %25, align 8
  %27 = getelementptr inbounds %struct._zend_shared_segment, ptr %26, i32 0, i32 2
  %28 = load i64, ptr %27, align 8
  %29 = sub i64 %19, %28
  store i64 %29, ptr %3, align 8
  %30 = load i64, ptr %3, align 8
  %31 = load i64, ptr %2, align 8
  %32 = icmp ugt i64 %30, %31
  br i1 %32, label %33, label %35

33:                                               ; preds = %10
  %34 = load i64, ptr %3, align 8
  store i64 %34, ptr %2, align 8
  br label %35

35:                                               ; preds = %33, %10
  br label %36

36:                                               ; preds = %35
  %37 = load i32, ptr %1, align 4
  %38 = add nsw i32 %37, 1
  store i32 %38, ptr %1, align 4
  br label %4

39:                                               ; preds = %4
  %40 = load i64, ptr %2, align 8
  ret i64 %40
}

; Function Attrs: nounwind uwtable
define hidden ptr @zend_shared_alloc(i64 noundef %0) #0 {
  %2 = alloca ptr, align 8
  %3 = alloca i64, align 8
  %4 = alloca i32, align 4
  %5 = alloca i32, align 4
  %6 = alloca ptr, align 8
  store i64 %0, ptr %3, align 8
  %7 = load i8, ptr getelementptr inbounds (%struct._zend_accel_globals, ptr @accel_globals, i32 0, i32 2), align 2
  %8 = trunc i8 %7 to i1
  call void @llvm.assume(i1 %8)
  %9 = load i64, ptr %3, align 8
  %10 = add i64 %9, 7
  %11 = and i64 %10, -8
  %12 = trunc i64 %11 to i32
  store i32 %12, ptr %5, align 4
  %13 = load i32, ptr %5, align 4
  %14 = zext i32 %13 to i64
  %15 = load i64, ptr %3, align 8
  %16 = icmp ult i64 %14, %15
  %17 = xor i1 %16, true
  %18 = xor i1 %17, true
  %19 = zext i1 %18 to i32
  %20 = sext i32 %19 to i64
  %21 = icmp ne i64 %20, 0
  br i1 %21, label %22, label %24

22:                                               ; preds = %1
  %23 = load i64, ptr %3, align 8
  call void (i32, ptr, ...) @zend_accel_error_noreturn(i32 noundef 1, ptr noundef @.str.7, i64 noundef %23, i64 noundef 8) #12
  unreachable

24:                                               ; preds = %1
  %25 = load i32, ptr %5, align 4
  %26 = zext i32 %25 to i64
  %27 = load ptr, ptr @smm_shared_globals, align 8
  %28 = getelementptr inbounds %struct._zend_smm_shared_globals, ptr %27, i32 0, i32 2
  %29 = load i64, ptr %28, align 8
  %30 = icmp ugt i64 %26, %29
  br i1 %30, label %31, label %44

31:                                               ; preds = %24
  br label %32

32:                                               ; preds = %31
  %33 = load i64, ptr %3, align 8
  %34 = load ptr, ptr @smm_shared_globals, align 8
  %35 = getelementptr inbounds %struct._zend_smm_shared_globals, ptr %34, i32 0, i32 2
  %36 = load i64, ptr %35, align 8
  call void (i32, ptr, ...) @zend_accel_error(i32 noundef 2, ptr noundef @.str.8, i64 noundef %33, i64 noundef %36)
  %37 = call i64 @zend_shared_alloc_get_largest_free_block()
  %38 = icmp ult i64 %37, 65536
  br i1 %38, label %39, label %42

39:                                               ; preds = %32
  %40 = load ptr, ptr @smm_shared_globals, align 8
  %41 = getelementptr inbounds %struct._zend_smm_shared_globals, ptr %40, i32 0, i32 4
  store i8 1, ptr %41, align 8
  br label %42

42:                                               ; preds = %39, %32
  br label %43

43:                                               ; preds = %42
  store ptr null, ptr %2, align 8
  br label %134

44:                                               ; preds = %24
  store i32 0, ptr %4, align 4
  br label %45

45:                                               ; preds = %118, %44
  %46 = load i32, ptr %4, align 4
  %47 = load ptr, ptr @smm_shared_globals, align 8
  %48 = getelementptr inbounds %struct._zend_smm_shared_globals, ptr %47, i32 0, i32 1
  %49 = load i32, ptr %48, align 8
  %50 = icmp slt i32 %46, %49
  br i1 %50, label %51, label %121

51:                                               ; preds = %45
  %52 = load ptr, ptr @smm_shared_globals, align 8
  %53 = getelementptr inbounds %struct._zend_smm_shared_globals, ptr %52, i32 0, i32 0
  %54 = load ptr, ptr %53, align 8
  %55 = load i32, ptr %4, align 4
  %56 = sext i32 %55 to i64
  %57 = getelementptr inbounds ptr, ptr %54, i64 %56
  %58 = load ptr, ptr %57, align 8
  %59 = getelementptr inbounds %struct._zend_shared_segment, ptr %58, i32 0, i32 1
  %60 = load i64, ptr %59, align 8
  %61 = load ptr, ptr @smm_shared_globals, align 8
  %62 = getelementptr inbounds %struct._zend_smm_shared_globals, ptr %61, i32 0, i32 0
  %63 = load ptr, ptr %62, align 8
  %64 = load i32, ptr %4, align 4
  %65 = sext i32 %64 to i64
  %66 = getelementptr inbounds ptr, ptr %63, i64 %65
  %67 = load ptr, ptr %66, align 8
  %68 = getelementptr inbounds %struct._zend_shared_segment, ptr %67, i32 0, i32 2
  %69 = load i64, ptr %68, align 8
  %70 = sub i64 %60, %69
  %71 = load i32, ptr %5, align 4
  %72 = zext i32 %71 to i64
  %73 = icmp uge i64 %70, %72
  br i1 %73, label %74, label %117

74:                                               ; preds = %51
  %75 = load ptr, ptr @smm_shared_globals, align 8
  %76 = getelementptr inbounds %struct._zend_smm_shared_globals, ptr %75, i32 0, i32 0
  %77 = load ptr, ptr %76, align 8
  %78 = load i32, ptr %4, align 4
  %79 = sext i32 %78 to i64
  %80 = getelementptr inbounds ptr, ptr %77, i64 %79
  %81 = load ptr, ptr %80, align 8
  %82 = getelementptr inbounds %struct._zend_shared_segment, ptr %81, i32 0, i32 3
  %83 = load ptr, ptr %82, align 8
  %84 = load ptr, ptr @smm_shared_globals, align 8
  %85 = getelementptr inbounds %struct._zend_smm_shared_globals, ptr %84, i32 0, i32 0
  %86 = load ptr, ptr %85, align 8
  %87 = load i32, ptr %4, align 4
  %88 = sext i32 %87 to i64
  %89 = getelementptr inbounds ptr, ptr %86, i64 %88
  %90 = load ptr, ptr %89, align 8
  %91 = getelementptr inbounds %struct._zend_shared_segment, ptr %90, i32 0, i32 2
  %92 = load i64, ptr %91, align 8
  %93 = getelementptr inbounds i8, ptr %83, i64 %92
  store ptr %93, ptr %6, align 8
  %94 = load i32, ptr %5, align 4
  %95 = zext i32 %94 to i64
  %96 = load ptr, ptr @smm_shared_globals, align 8
  %97 = getelementptr inbounds %struct._zend_smm_shared_globals, ptr %96, i32 0, i32 0
  %98 = load ptr, ptr %97, align 8
  %99 = load i32, ptr %4, align 4
  %100 = sext i32 %99 to i64
  %101 = getelementptr inbounds ptr, ptr %98, i64 %100
  %102 = load ptr, ptr %101, align 8
  %103 = getelementptr inbounds %struct._zend_shared_segment, ptr %102, i32 0, i32 2
  %104 = load i64, ptr %103, align 8
  %105 = add i64 %104, %95
  store i64 %105, ptr %103, align 8
  %106 = load i32, ptr %5, align 4
  %107 = zext i32 %106 to i64
  %108 = load ptr, ptr @smm_shared_globals, align 8
  %109 = getelementptr inbounds %struct._zend_smm_shared_globals, ptr %108, i32 0, i32 2
  %110 = load i64, ptr %109, align 8
  %111 = sub i64 %110, %107
  store i64 %111, ptr %109, align 8
  %112 = load ptr, ptr %6, align 8
  %113 = ptrtoint ptr %112 to i64
  %114 = and i64 %113, 7
  %115 = icmp eq i64 %114, 0
  call void @llvm.assume(i1 %115)
  %116 = load ptr, ptr %6, align 8
  store ptr %116, ptr %2, align 8
  br label %134

117:                                              ; preds = %51
  br label %118

118:                                              ; preds = %117
  %119 = load i32, ptr %4, align 4
  %120 = add nsw i32 %119, 1
  store i32 %120, ptr %4, align 4
  br label %45

121:                                              ; preds = %45
  br label %122

122:                                              ; preds = %121
  %123 = load i64, ptr %3, align 8
  %124 = load ptr, ptr @smm_shared_globals, align 8
  %125 = getelementptr inbounds %struct._zend_smm_shared_globals, ptr %124, i32 0, i32 2
  %126 = load i64, ptr %125, align 8
  call void (i32, ptr, ...) @zend_accel_error(i32 noundef 2, ptr noundef @.str.8, i64 noundef %123, i64 noundef %126)
  %127 = call i64 @zend_shared_alloc_get_largest_free_block()
  %128 = icmp ult i64 %127, 65536
  br i1 %128, label %129, label %132

129:                                              ; preds = %122
  %130 = load ptr, ptr @smm_shared_globals, align 8
  %131 = getelementptr inbounds %struct._zend_smm_shared_globals, ptr %130, i32 0, i32 4
  store i8 1, ptr %131, align 8
  br label %132

132:                                              ; preds = %129, %122
  br label %133

133:                                              ; preds = %132
  store ptr null, ptr %2, align 8
  br label %134

134:                                              ; preds = %133, %74, %43
  %135 = load ptr, ptr %2, align 8
  ret ptr %135
}