; Function Attrs: nounwind uwtable
define hidden ptr @zend_shared_alloc(i64 noundef %0) local_unnamed_addr #0 {
  %2 = load i8, ptr getelementptr inbounds (%struct._zend_accel_globals, ptr @accel_globals, i64 0, i32 2), align 2
  %3 = and i8 %2, 1
  %4 = icmp ne i8 %3, 0
  tail call void @llvm.assume(i1 %4)
  %5 = add i64 %0, 7
  %6 = and i64 %5, 4294967288
  %7 = icmp ult i64 %6, %0
  br i1 %7, label %8, label %9

8:                                                ; preds = %1
  tail call void (i32, ptr, ...) @zend_accel_error_noreturn(i32 noundef 1, ptr noundef nonnull @.str.7, i64 noundef %0, i64 noundef 8) #22
  unreachable

9:                                                ; preds = %1
  %10 = load ptr, ptr @smm_shared_globals, align 8
  %11 = getelementptr inbounds i8, ptr %10, i64 16
  %12 = load i64, ptr %11, align 8
  %13 = icmp ugt i64 %6, %12
  br i1 %13, label %18, label %.preheader

.preheader:                                       ; preds = %9
  %14 = getelementptr inbounds i8, ptr %10, i64 8
  %15 = load i32, ptr %14, align 8
  %16 = icmp sgt i32 %15, 0
  br i1 %16, label %.lr.ph, label %._crit_edge

.lr.ph:                                           ; preds = %.preheader
  %17 = load ptr, ptr %10, align 8
  %wide.trip.count = zext nneg i32 %15 to i64
  br label %35

18:                                               ; preds = %9
  tail call void (i32, ptr, ...) @zend_accel_error(i32 noundef 2, ptr noundef nonnull @.str.8, i64 noundef %0, i64 noundef %12) #20
  %19 = load ptr, ptr @smm_shared_globals, align 8
  %20 = getelementptr inbounds i8, ptr %19, i64 8
  %21 = load i32, ptr %20, align 8
  %22 = icmp sgt i32 %21, 0
  br i1 %22, label %.lr.ph.i, label %zend_shared_alloc_get_largest_free_block.exit.thread

.lr.ph.i:                                         ; preds = %18
  %23 = load ptr, ptr %19, align 8
  %wide.trip.count.i = zext nneg i32 %21 to i64
  br label %24

24:                                               ; preds = %24, %.lr.ph.i
  %indvars.iv.i = phi i64 [ 0, %.lr.ph.i ], [ %indvars.iv.next.i, %24 ]
  %.0810.i = phi i64 [ 0, %.lr.ph.i ], [ %spec.select.i, %24 ]
  %25 = getelementptr inbounds ptr, ptr %23, i64 %indvars.iv.i
  %26 = load ptr, ptr %25, align 8
  %27 = getelementptr inbounds i8, ptr %26, i64 8
  %28 = load i64, ptr %27, align 8
  %29 = getelementptr inbounds i8, ptr %26, i64 16
  %30 = load i64, ptr %29, align 8
  %31 = sub i64 %28, %30
  %spec.select.i = tail call i64 @llvm.umax.i64(i64 %31, i64 %.0810.i)
  %indvars.iv.next.i = add nuw nsw i64 %indvars.iv.i, 1
  %exitcond.not.i = icmp eq i64 %indvars.iv.next.i, %wide.trip.count.i
  br i1 %exitcond.not.i, label %zend_shared_alloc_get_largest_free_block.exit, label %24

zend_shared_alloc_get_largest_free_block.exit:    ; preds = %24
  %32 = icmp ult i64 %spec.select.i, 65536
  br i1 %32, label %zend_shared_alloc_get_largest_free_block.exit.thread, label %69

zend_shared_alloc_get_largest_free_block.exit.thread: ; preds = %18, %zend_shared_alloc_get_largest_free_block.exit
  %33 = getelementptr inbounds i8, ptr %19, i64 32
  store i8 1, ptr %33, align 8
  br label %69

34:                                               ; preds = %35
  %indvars.iv.next = add nuw nsw i64 %indvars.iv, 1
  %exitcond.not = icmp eq i64 %indvars.iv.next, %wide.trip.count
  br i1 %exitcond.not, label %._crit_edge, label %35

35:                                               ; preds = %.lr.ph, %34
  %indvars.iv = phi i64 [ 0, %.lr.ph ], [ %indvars.iv.next, %34 ]
  %36 = getelementptr inbounds ptr, ptr %17, i64 %indvars.iv
  %37 = load ptr, ptr %36, align 8
  %38 = getelementptr inbounds i8, ptr %37, i64 8
  %39 = load i64, ptr %38, align 8
  %40 = getelementptr inbounds i8, ptr %37, i64 16
  %41 = load i64, ptr %40, align 8
  %42 = sub i64 %39, %41
  %.not = icmp ult i64 %42, %6
  br i1 %.not, label %34, label %43

43:                                               ; preds = %35
  %44 = getelementptr inbounds i8, ptr %37, i64 16
  %45 = getelementptr inbounds i8, ptr %37, i64 24
  %46 = load ptr, ptr %45, align 8
  %47 = getelementptr inbounds i8, ptr %46, i64 %41
  %48 = add i64 %41, %6
  store i64 %48, ptr %44, align 8
  %49 = load i64, ptr %11, align 8
  %50 = sub i64 %49, %6
  store i64 %50, ptr %11, align 8
  %51 = ptrtoint ptr %47 to i64
  %52 = and i64 %51, 7
  %53 = icmp eq i64 %52, 0
  tail call void @llvm.assume(i1 %53)
  br label %69

._crit_edge:                                      ; preds = %34, %.preheader
  tail call void (i32, ptr, ...) @zend_accel_error(i32 noundef 2, ptr noundef nonnull @.str.8, i64 noundef %0, i64 noundef %12) #20
  %54 = load ptr, ptr @smm_shared_globals, align 8
  %55 = getelementptr inbounds i8, ptr %54, i64 8
  %56 = load i32, ptr %55, align 8
  %57 = icmp sgt i32 %56, 0
  br i1 %57, label %.lr.ph.i24, label %zend_shared_alloc_get_largest_free_block.exit31.thread

.lr.ph.i24:                                       ; preds = %._crit_edge
  %58 = load ptr, ptr %54, align 8
  %wide.trip.count.i25 = zext nneg i32 %56 to i64
  br label %59

59:                                               ; preds = %59, %.lr.ph.i24
  %indvars.iv.i26 = phi i64 [ 0, %.lr.ph.i24 ], [ %indvars.iv.next.i29, %59 ]
  %.0810.i27 = phi i64 [ 0, %.lr.ph.i24 ], [ %spec.select.i28, %59 ]
  %60 = getelementptr inbounds ptr, ptr %58, i64 %indvars.iv.i26
  %61 = load ptr, ptr %60, align 8
  %62 = getelementptr inbounds i8, ptr %61, i64 8
  %63 = load i64, ptr %62, align 8
  %64 = getelementptr inbounds i8, ptr %61, i64 16
  %65 = load i64, ptr %64, align 8
  %66 = sub i64 %63, %65
  %spec.select.i28 = tail call i64 @llvm.umax.i64(i64 %66, i64 %.0810.i27)
  %indvars.iv.next.i29 = add nuw nsw i64 %indvars.iv.i26, 1
  %exitcond.not.i30 = icmp eq i64 %indvars.iv.next.i29, %wide.trip.count.i25
  br i1 %exitcond.not.i30, label %zend_shared_alloc_get_largest_free_block.exit31, label %59

zend_shared_alloc_get_largest_free_block.exit31:  ; preds = %59
  %67 = icmp ult i64 %spec.select.i28, 65536
  br i1 %67, label %zend_shared_alloc_get_largest_free_block.exit31.thread, label %69

zend_shared_alloc_get_largest_free_block.exit31.thread: ; preds = %._crit_edge, %zend_shared_alloc_get_largest_free_block.exit31
  %68 = getelementptr inbounds i8, ptr %54, i64 32
  store i8 1, ptr %68, align 8
  br label %69

69:                                               ; preds = %zend_shared_alloc_get_largest_free_block.exit31.thread, %zend_shared_alloc_get_largest_free_block.exit31, %zend_shared_alloc_get_largest_free_block.exit.thread, %zend_shared_alloc_get_largest_free_block.exit, %43
  %.0 = phi ptr [ %47, %43 ], [ null, %zend_shared_alloc_get_largest_free_block.exit ], [ null, %zend_shared_alloc_get_largest_free_block.exit.thread ], [ null, %zend_shared_alloc_get_largest_free_block.exit31 ], [ null, %zend_shared_alloc_get_largest_free_block.exit31.thread ]
  ret ptr %.0
}